target datalayout = "e-m:e-p270:32:32-p271:32:32-p272:64:64-i64:64-i128:128-f80:128-n8:16:32:64-S128"
target triple = "x86_64-pc-linux-gnu"

%struct.Gia_Man_t_ = type { ptr, ptr, i32, i32, i32, i32, ptr, ptr, i32, i32, i32, ptr, ptr, %struct.Vec_Int_t_, %struct.Vec_Int_t_, i32, i32, i32, %struct.Vec_Int_t_, ptr, ptr, ptr, i32, i32, i32, i32, ptr, ptr, ptr, ptr, ptr, i32, i32, ptr, i32, ptr, ptr, ptr, ptr, ptr, ptr, ptr, ptr, ptr, ptr, ptr, ptr, ptr, ptr, ptr, ptr, ptr, ptr, %struct.Vec_Int_t_, %struct.Vec_Int_t_, ptr, ptr, ptr, ptr, ptr, ptr, ptr, ptr, ptr, ptr, ptr, ptr, ptr, ptr, ptr, ptr, ptr, ptr, ptr, ptr, ptr, i32, float, float, ptr, ptr, i32, ptr, ptr, ptr, ptr, ptr, ptr, ptr, ptr, ptr, ptr, ptr, ptr, ptr, ptr, ptr, i64, i64, ptr, ptr, i32, i32, i32, i32, i32, i32, i32, i32, i32, i32, i32, i32, ptr, ptr, ptr, ptr, ptr, ptr, ptr, ptr, i32, i32, i32, ptr, i32, i32, ptr, ptr, ptr, ptr, ptr, ptr, i32, i32, ptr, %struct.Vec_Int_t_, %struct.Vec_Int_t_, %struct.Vec_Int_t_, ptr, ptr, ptr, i32, i32, i32, i32, ptr, ptr, ptr, ptr, ptr }
%struct.Vec_Int_t_ = type { i32, i32, ptr }
%struct.Par_ThData_t_ = type { ptr, i32, i32, i32, i32, i32 }

; Function Attrs: nounwind uwtable
define i32 @Cec_GiaWaitThreads(ptr noundef %0, i32 noundef %1, ptr noundef %2, i32 noundef %3, ptr noundef %4) #0 {
  %6 = alloca ptr, align 8
  %7 = alloca i32, align 4
  %8 = alloca ptr, align 8
  %9 = alloca i32, align 4
  %10 = alloca ptr, align 8
  %11 = alloca i32, align 4
  store ptr %0, ptr %6, align 8, !tbaa !74
  store i32 %1, ptr %7, align 4, !tbaa !8
  store ptr %2, ptr %8, align 8, !tbaa !3
  store i32 %3, ptr %9, align 4, !tbaa !8
  store ptr %4, ptr %10, align 8, !tbaa !76
  call void @llvm.lifetime.start.p0(i64 4, ptr %11) #9
  store i32 0, ptr %11, align 4, !tbaa !8
  br label %12

12:                                               ; preds = %81, %5
  %13 = load i32, ptr %11, align 4, !tbaa !8
  %14 = load i32, ptr %7, align 4, !tbaa !8
  %15 = icmp slt i32 %13, %14
  br i1 %15, label %16, label %84

16:                                               ; preds = %12
  %17 = load i32, ptr %9, align 4, !tbaa !8
  %18 = icmp eq i32 %17, -1
  br i1 %18, label %19, label %71

19:                                               ; preds = %16
  %20 = load ptr, ptr %6, align 8, !tbaa !74
  %21 = load i32, ptr %11, align 4, !tbaa !8
  %22 = sext i32 %21 to i64
  %23 = getelementptr inbounds %struct.Par_ThData_t_, ptr %20, i64 %22
  %24 = getelementptr inbounds nuw %struct.Par_ThData_t_, ptr %23, i32 0, i32 2
  %25 = load i32, ptr %24, align 4, !tbaa !85
  %26 = icmp ne i32 %25, 0
  br i1 %26, label %71, label %27

27:                                               ; preds = %19
  %28 = load ptr, ptr %6, align 8, !tbaa !74
  %29 = load i32, ptr %11, align 4, !tbaa !8
  %30 = sext i32 %29 to i64
  %31 = getelementptr inbounds %struct.Par_ThData_t_, ptr %28, i64 %30
  %32 = getelementptr inbounds nuw %struct.Par_ThData_t_, ptr %31, i32 0, i32 4
  %33 = load i32, ptr %32, align 4, !tbaa !84
  %34 = icmp ne i32 %33, -1
  br i1 %34, label %35, label %71

35:                                               ; preds = %27
  %36 = load ptr, ptr %6, align 8, !tbaa !74
  %37 = load i32, ptr %11, align 4, !tbaa !8
  %38 = sext i32 %37 to i64
  %39 = getelementptr inbounds %struct.Par_ThData_t_, ptr %36, i64 %38
  %40 = getelementptr inbounds nuw %struct.Par_ThData_t_, ptr %39, i32 0, i32 4
  %41 = load i32, ptr %40, align 4, !tbaa !84
  store i32 %41, ptr %9, align 4, !tbaa !8
  %42 = load i32, ptr %11, align 4, !tbaa !8
  %43 = load ptr, ptr %10, align 8, !tbaa !76
  store i32 %42, ptr %43, align 4, !tbaa !8
  %44 = load ptr, ptr %8, align 8, !tbaa !3
  %45 = getelementptr inbounds nuw %struct.Gia_Man_t_, ptr %44, i32 0, i32 51
  %46 = load ptr, ptr %45, align 8, !tbaa !36
  %47 = icmp ne ptr %46, null
  br i1 %47, label %70, label %48

48:                                               ; preds = %35
  %49 = load ptr, ptr %6, align 8, !tbaa !74
  %50 = load i32, ptr %11, align 4, !tbaa !8
  %51 = sext i32 %50 to i64
  %52 = getelementptr inbounds %struct.Par_ThData_t_, ptr %49, i64 %51
  %53 = getelementptr inbounds nuw %struct.Par_ThData_t_, ptr %52, i32 0, i32 0
  %54 = load ptr, ptr %53, align 8, !tbaa !79
  %55 = getelementptr inbounds nuw %struct.Gia_Man_t_, ptr %54, i32 0, i32 51
  %56 = load ptr, ptr %55, align 8, !tbaa !36
  %57 = icmp ne ptr %56, null
  br i1 %57, label %58, label %70

58:                                               ; preds = %48
  %59 = load ptr, ptr %6, align 8, !tbaa !74
  %60 = load i32, ptr %11, align 4, !tbaa !8
  %61 = sext i32 %60 to i64
  %62 = getelementptr inbounds %struct.Par_ThData_t_, ptr %59, i64 %61
  %63 = getelementptr inbounds nuw %struct.Par_ThData_t_, ptr %62, i32 0, i32 0
  %64 = load ptr, ptr %63, align 8, !tbaa !79
  %65 = getelementptr inbounds nuw %struct.Gia_Man_t_, ptr %64, i32 0, i32 51
  %66 = load ptr, ptr %65, align 8, !tbaa !36
  %67 = call ptr @Abc_CexDup(ptr noundef %66, i32 noundef -1)
  %68 = load ptr, ptr %8, align 8, !tbaa !3
  %69 = getelementptr inbounds nuw %struct.Gia_Man_t_, ptr %68, i32 0, i32 51
  store ptr %67, ptr %69, align 8, !tbaa !36
  br label %70

70:                                               ; preds = %58, %48, %35
  br label %71

71:                                               ; preds = %70, %27, %19, %16
  %72 = load ptr, ptr %6, align 8, !tbaa !74
  %73 = load i32, ptr %11, align 4, !tbaa !8
  %74 = sext i32 %73 to i64
  %75 = getelementptr inbounds %struct.Par_ThData_t_, ptr %72, i64 %74
  %76 = getelementptr inbounds nuw %struct.Par_ThData_t_, ptr %75, i32 0, i32 2
  %77 = load i32, ptr %76, align 4, !tbaa !85
  %78 = icmp ne i32 %77, 0
  br i1 %78, label %79, label %80

79:                                               ; preds = %71
  store i32 -1, ptr %11, align 4, !tbaa !8
  br label %80

80:                                               ; preds = %79, %71
  br label %81

81:                                               ; preds = %80
  %82 = load i32, ptr %11, align 4, !tbaa !8
  %83 = add nsw i32 %82, 1
  store i32 %83, ptr %11, align 4, !tbaa !8
  br label %12, !llvm.loop !90

84:                                               ; preds = %12
  %85 = load i32, ptr %9, align 4, !tbaa !8
  call void @llvm.lifetime.end.p0(i64 4, ptr %11) #9
  ret i32 %85
}