; Function Attrs: nounwind uwtable
define i32 @Cec_GiaWaitThreads(ptr noundef readonly captures(none) %0, i32 noundef %1, ptr noundef captures(none) %2, i32 noundef %3, ptr noundef writeonly captures(none) %4) local_unnamed_addr #0 {
  %6 = icmp sgt i32 %1, 0
  br i1 %6, label %.lr.ph, label %._crit_edge

.lr.ph:                                           ; preds = %5
  %7 = getelementptr inbounds nuw i8, ptr %2, i64 376
  br label %8

8:                                                ; preds = %.lr.ph, %._crit_edge29
  %.028 = phi i32 [ 0, %.lr.ph ], [ %29, %._crit_edge29 ]
  %.02027 = phi i32 [ %3, %.lr.ph ], [ %.1, %._crit_edge29 ]
  %9 = icmp eq i32 %.02027, -1
  %10 = sext i32 %.028 to i64
  br i1 %9, label %11, label %._crit_edge29

11:                                               ; preds = %8
  %12 = getelementptr inbounds %struct.Par_ThData_t_, ptr %0, i64 %10
  %13 = getelementptr inbounds nuw i8, ptr %12, i64 12
  %14 = load i32, ptr %13, align 4, !tbaa !68
  %.not = icmp eq i32 %14, 0
  br i1 %.not, label %15, label %._crit_edge29

15:                                               ; preds = %11
  %16 = getelementptr inbounds nuw i8, ptr %12, i64 20
  %17 = load i32, ptr %16, align 4, !tbaa !67
  %.not23 = icmp eq i32 %17, -1
  br i1 %.not23, label %._crit_edge29, label %18

18:                                               ; preds = %15
  store i32 %.028, ptr %4, align 4, !tbaa !59
  %19 = load ptr, ptr %7, align 8, !tbaa !30
  %.not24 = icmp eq ptr %19, null
  br i1 %.not24, label %20, label %._crit_edge29

20:                                               ; preds = %18
  %21 = load ptr, ptr %12, align 8, !tbaa !62
  %22 = getelementptr inbounds nuw i8, ptr %21, i64 376
  %23 = load ptr, ptr %22, align 8, !tbaa !30
  %.not25 = icmp eq ptr %23, null
  br i1 %.not25, label %._crit_edge29, label %24

24:                                               ; preds = %20
  %25 = tail call ptr @Abc_CexDup(ptr noundef nonnull %23, i32 noundef -1) #13
  store ptr %25, ptr %7, align 8, !tbaa !30
  br label %._crit_edge29

._crit_edge29:                                    ; preds = %8, %18, %20, %24, %15, %11
  %.1 = phi i32 [ %17, %18 ], [ %17, %20 ], [ %17, %24 ], [ -1, %15 ], [ -1, %11 ], [ %.02027, %8 ]
  %26 = getelementptr inbounds %struct.Par_ThData_t_, ptr %0, i64 %10, i32 2
  %27 = load i32, ptr %26, align 4, !tbaa !68
  %.not26 = icmp eq i32 %27, 0
  %28 = add nsw i32 %.028, 1
  %29 = select i1 %.not26, i32 %28, i32 0
  %30 = icmp slt i32 %29, %1
  br i1 %30, label %8, label %._crit_edge, !llvm.loop !71

._crit_edge:                                      ; preds = %._crit_edge29, %5
  %.020.lcssa = phi i32 [ %3, %5 ], [ %.1, %._crit_edge29 ]
  ret i32 %.020.lcssa
}